target datalayout = "e-m:e-p270:32:32-p271:32:32-p272:64:64-i64:64-i128:128-f80:128-n8:16:32:64-S128"
target triple = "x86_64-pc-linux-gnu"

; Function Attrs: nounwind uwtable
define i64 @ossl_rand_get_user_entropy(ptr noundef %0, ptr noundef %1, i32 noundef %2, i64 noundef %3, i64 noundef %4) #0 {
  %6 = alloca i64, align 8
  %7 = alloca ptr, align 8
  %8 = alloca ptr, align 8
  %9 = alloca i32, align 4
  %10 = alloca i64, align 8
  %11 = alloca i64, align 8
  %12 = alloca ptr, align 8
  %13 = alloca i32, align 4
  store ptr %0, ptr %7, align 8, !tbaa !3
  store ptr %1, ptr %8, align 8, !tbaa !8
  store i32 %2, ptr %9, align 4, !tbaa !10
  store i64 %3, ptr %10, align 8, !tbaa !12
  store i64 %4, ptr %11, align 8, !tbaa !12
  call void @llvm.lifetime.start.p0(i64 8, ptr %12) #3
  %14 = load ptr, ptr %7, align 8, !tbaa !3
  %15 = call ptr @ossl_rand_get0_seed_noncreating(ptr noundef %14)
  store ptr %15, ptr %12, align 8, !tbaa !18
  %16 = load ptr, ptr %12, align 8, !tbaa !18
  %17 = icmp ne ptr %16, null
  br i1 %17, label %18, label %29

18:                                               ; preds = %5
  %19 = load ptr, ptr %12, align 8, !tbaa !18
  %20 = call i32 @evp_rand_can_seed(ptr noundef %19)
  %21 = icmp ne i32 %20, 0
  br i1 %21, label %22, label %29

22:                                               ; preds = %18
  %23 = load ptr, ptr %12, align 8, !tbaa !18
  %24 = load ptr, ptr %8, align 8, !tbaa !8
  %25 = load i32, ptr %9, align 4, !tbaa !10
  %26 = load i64, ptr %10, align 8, !tbaa !12
  %27 = load i64, ptr %11, align 8, !tbaa !12
  %28 = call i64 @evp_rand_get_seed(ptr noundef %23, ptr noundef %24, i32 noundef %25, i64 noundef %26, i64 noundef %27, i32 noundef 0, ptr noundef null, i64 noundef 0)
  store i64 %28, ptr %6, align 8
  store i32 1, ptr %13, align 4
  br label %36

29:                                               ; preds = %18, %5
  %30 = load ptr, ptr %7, align 8, !tbaa !3
  %31 = load ptr, ptr %8, align 8, !tbaa !8
  %32 = load i32, ptr %9, align 4, !tbaa !10
  %33 = load i64, ptr %10, align 8, !tbaa !12
  %34 = load i64, ptr %11, align 8, !tbaa !12
  %35 = call i64 @ossl_rand_get_entropy(ptr noundef %30, ptr noundef %31, i32 noundef %32, i64 noundef %33, i64 noundef %34)
  store i64 %35, ptr %6, align 8
  store i32 1, ptr %13, align 4
  br label %36

36:                                               ; preds = %29, %22
  call void @llvm.lifetime.end.p0(i64 8, ptr %12) #3
  %37 = load i64, ptr %6, align 8
  ret i64 %37
}