; Function Attrs: nounwind uwtable
define i64 @ossl_rand_get_user_entropy(ptr noundef %0, ptr noundef %1, i32 noundef %2, i64 noundef %3, i64 noundef %4) local_unnamed_addr #0 {
  %6 = tail call ptr @ossl_rand_get0_seed_noncreating(ptr noundef %0) #2
  %.not = icmp eq ptr %6, null
  br i1 %.not, label %11, label %7

7:                                                ; preds = %5
  %8 = tail call i32 @evp_rand_can_seed(ptr noundef nonnull %6) #2
  %.not14 = icmp eq i32 %8, 0
  br i1 %.not14, label %11, label %9

9:                                                ; preds = %7
  %10 = tail call i64 @evp_rand_get_seed(ptr noundef nonnull %6, ptr noundef %1, i32 noundef %2, i64 noundef %3, i64 noundef %4, i32 noundef 0, ptr noundef null, i64 noundef 0) #2
  br label %13

11:                                               ; preds = %7, %5
  %12 = tail call i64 @ossl_rand_get_entropy(ptr poison, ptr noundef %1, i32 noundef %2, i64 noundef %3, i64 noundef %4)
  br label %13

13:                                               ; preds = %11, %9
  %.0 = phi i64 [ %10, %9 ], [ %12, %11 ]
  ret i64 %.0
}